target datalayout = "e-m:e-p270:32:32-p271:32:32-p272:64:64-i64:64-i128:128-f80:128-n8:16:32:64-S128"
target triple = "x86_64-pc-linux-gnu"

%struct.FunctionCallInfoBaseData = type { ptr, ptr, ptr, i32, i8, i16, [0 x %struct.NullableDatum] }
%struct.NullableDatum = type { i64, i8 }
%struct.FmgrInfo = type { ptr, i32, i16, i8, i8, i8, ptr, ptr, ptr }
%struct.anon = type { i32, [0 x i8] }

; Function Attrs: inlinehint nounwind uwtable
define internal i64 @BoolGetDatum(i1 noundef zeroext %0) #2 {
  %2 = alloca i8, align 1
  %3 = zext i1 %0 to i8
  store i8 %3, ptr %2, align 1
  %4 = load i8, ptr %2, align 1, !range !4, !noundef !5
  %5 = trunc i8 %4 to i1
  %6 = select i1 %5, i32 1, i32 0
  %7 = sext i32 %6 to i64
  ret i64 %7
}

; Function Attrs: inlinehint nounwind uwtable
define internal ptr @DatumGetPointer(i64 noundef %0) #2 {
  %2 = alloca i64, align 8
  store i64 %0, ptr %2, align 8
  %3 = load i64, ptr %2, align 8
  %4 = inttoptr i64 %3 to ptr
  ret ptr %4
}

; Function Attrs: nounwind uwtable
define dso_local i64 @arraycontained(ptr noundef %0) #0 {
  %2 = alloca ptr, align 8
  %3 = alloca ptr, align 8
  %4 = alloca ptr, align 8
  %5 = alloca i32, align 4
  %6 = alloca i8, align 1
  store ptr %0, ptr %2, align 8
  call void @llvm.lifetime.start.p0(i64 8, ptr %3) #11
  %7 = load ptr, ptr %2, align 8
  %8 = getelementptr inbounds nuw %struct.FunctionCallInfoBaseData, ptr %7, i32 0, i32 6
  %9 = getelementptr inbounds [0 x %struct.NullableDatum], ptr %8, i64 0, i64 0
  %10 = getelementptr inbounds nuw %struct.NullableDatum, ptr %9, i32 0, i32 0
  %11 = load i64, ptr %10, align 8
  %12 = call ptr @DatumGetAnyArrayP(i64 noundef %11)
  store ptr %12, ptr %3, align 8
  call void @llvm.lifetime.start.p0(i64 8, ptr %4) #11
  %13 = load ptr, ptr %2, align 8
  %14 = getelementptr inbounds nuw %struct.FunctionCallInfoBaseData, ptr %13, i32 0, i32 6
  %15 = getelementptr inbounds [0 x %struct.NullableDatum], ptr %14, i64 0, i64 1
  %16 = getelementptr inbounds nuw %struct.NullableDatum, ptr %15, i32 0, i32 0
  %17 = load i64, ptr %16, align 8
  %18 = call ptr @DatumGetAnyArrayP(i64 noundef %17)
  store ptr %18, ptr %4, align 8
  call void @llvm.lifetime.start.p0(i64 4, ptr %5) #11
  %19 = load ptr, ptr %2, align 8
  %20 = getelementptr inbounds nuw %struct.FunctionCallInfoBaseData, ptr %19, i32 0, i32 3
  %21 = load i32, ptr %20, align 8
  store i32 %21, ptr %5, align 4
  call void @llvm.lifetime.start.p0(i64 1, ptr %6) #11
  %22 = load ptr, ptr %3, align 8
  %23 = load ptr, ptr %4, align 8
  %24 = load i32, ptr %5, align 4
  %25 = load ptr, ptr %2, align 8
  %26 = getelementptr inbounds nuw %struct.FunctionCallInfoBaseData, ptr %25, i32 0, i32 0
  %27 = load ptr, ptr %26, align 8
  %28 = getelementptr inbounds nuw %struct.FmgrInfo, ptr %27, i32 0, i32 6
  %29 = call zeroext i1 @array_contain_compare(ptr noundef %22, ptr noundef %23, i32 noundef %24, i1 noundef zeroext true, ptr noundef %28)
  %30 = zext i1 %29 to i8
  store i8 %30, ptr %6, align 1
  br label %31

31:                                               ; preds = %1
  %32 = load ptr, ptr %3, align 8
  %33 = getelementptr inbounds nuw %struct.anon, ptr %32, i32 0, i32 0
  %34 = load i32, ptr %33, align 4
  %35 = icmp eq i32 %34, -1
  br i1 %35, label %51, label %36

36:                                               ; preds = %31
  br label %37

37:                                               ; preds = %36
  %38 = load ptr, ptr %3, align 8
  %39 = load ptr, ptr %2, align 8
  %40 = getelementptr inbounds nuw %struct.FunctionCallInfoBaseData, ptr %39, i32 0, i32 6
  %41 = getelementptr inbounds [0 x %struct.NullableDatum], ptr %40, i64 0, i64 0
  %42 = getelementptr inbounds nuw %struct.NullableDatum, ptr %41, i32 0, i32 0
  %43 = load i64, ptr %42, align 8
  %44 = call ptr @DatumGetPointer(i64 noundef %43)
  %45 = icmp ne ptr %38, %44
  br i1 %45, label %46, label %48

46:                                               ; preds = %37
  %47 = load ptr, ptr %3, align 8
  call void @pfree(ptr noundef %47)
  br label %48

48:                                               ; preds = %46, %37
  br label %49

49:                                               ; preds = %48
  br label %50

50:                                               ; preds = %49
  br label %51

51:                                               ; preds = %50, %31
  br label %52

52:                                               ; preds = %51
  br label %53

53:                                               ; preds = %52
  br label %54

54:                                               ; preds = %53
  %55 = load ptr, ptr %4, align 8
  %56 = getelementptr inbounds nuw %struct.anon, ptr %55, i32 0, i32 0
  %57 = load i32, ptr %56, align 4
  %58 = icmp eq i32 %57, -1
  br i1 %58, label %74, label %59

59:                                               ; preds = %54
  br label %60

60:                                               ; preds = %59
  %61 = load ptr, ptr %4, align 8
  %62 = load ptr, ptr %2, align 8
  %63 = getelementptr inbounds nuw %struct.FunctionCallInfoBaseData, ptr %62, i32 0, i32 6
  %64 = getelementptr inbounds [0 x %struct.NullableDatum], ptr %63, i64 0, i64 1
  %65 = getelementptr inbounds nuw %struct.NullableDatum, ptr %64, i32 0, i32 0
  %66 = load i64, ptr %65, align 8
  %67 = call ptr @DatumGetPointer(i64 noundef %66)
  %68 = icmp ne ptr %61, %67
  br i1 %68, label %69, label %71

69:                                               ; preds = %60
  %70 = load ptr, ptr %4, align 8
  call void @pfree(ptr noundef %70)
  br label %71

71:                                               ; preds = %69, %60
  br label %72

72:                                               ; preds = %71
  br label %73

73:                                               ; preds = %72
  br label %74

74:                                               ; preds = %73, %54
  br label %75

75:                                               ; preds = %74
  br label %76

76:                                               ; preds = %75
  %77 = load i8, ptr %6, align 1, !range !4, !noundef !5
  %78 = trunc i8 %77 to i1
  %79 = call i64 @BoolGetDatum(i1 noundef zeroext %78)
  call void @llvm.lifetime.end.p0(i64 1, ptr %6) #11
  call void @llvm.lifetime.end.p0(i64 4, ptr %5) #11
  call void @llvm.lifetime.end.p0(i64 8, ptr %4) #11
  call void @llvm.lifetime.end.p0(i64 8, ptr %3) #11
  ret i64 %79
}